Certificate:
    Data:
        Version: 3 (0x2)
        Serial Number: 3 (0x3)
    Signature Algorithm: sha256WithRSAEncryption
        Issuer: C=CN, ST=GD, L=SZ, O=Miky Company, OU=IT, CN=miky.com/emailAddress=gillmstar@163.com
        Validity
            Not Before: Jun  8 09:53:34 2019 GMT
            Not After : Jun  7 09:53:34 2020 GMT
        Subject: C=CN, ST=GD, O=Miky Company, OU=IT, CN=*.miky.com/emailAddress=gillmstar@163.com
        Subject Public Key Info:
            Public Key Algorithm: rsaEncryption
                Public-Key: (2048 bit)
                Modulus:
                    00:c5:a5:64:ee:ef:44:e2:8e:6f:96:4d:b5:b1:a1:
                    84:e5:07:e0:80:6d:d4:2e:64:a9:95:a0:57:1f:5c:
                    c8:8b:b6:dd:82:9a:20:4f:cd:f8:af:99:fe:5b:17:
                    fe:2b:05:ca:f3:99:67:ce:e6:54:a9:d1:21:3a:fc:
                    30:0b:fb:84:e1:0d:8a:f5:f4:7e:6e:23:46:3a:d9:
                    23:c0:98:ca:04:ed:3f:e6:6a:9d:e0:b2:ff:53:52:
                    b0:f5:ab:cc:67:dc:0a:25:a6:36:2a:4b:f4:69:e5:
                    9d:a3:80:39:29:d8:02:3c:79:bd:8f:8b:06:d8:19:
                    5e:8c:c7:b7:54:1d:10:e6:f5:6d:34:bb:6a:1c:f6:
                    f4:5d:4f:c5:2a:34:17:85:c4:65:a8:1a:06:00:af:
                    3d:4a:78:80:f1:7b:7e:a6:1e:90:8d:91:28:a2:60:
                    5b:f4:c6:9e:61:b6:18:1f:3d:3e:8a:05:b2:0a:42:
                    b8:a7:b6:d6:b7:58:4f:59:b2:33:a4:a3:42:32:df:
                    a1:c6:66:43:a1:1d:bb:0b:cf:51:89:3a:48:d5:30:
                    0b:62:b2:88:9c:14:86:47:7a:11:3b:2b:95:fa:6c:
                    2b:a7:35:9e:ae:fe:2b:b6:79:ae:87:5b:e3:10:fb:
                    1f:91:c3:12:84:ad:e9:da:ef:b0:72:ff:da:ef:9e:
                    db:79
                Exponent: 65537 (0x10001)
        X509v3 extensions:
            X509v3 Basic Constraints: 
                CA:FALSE
            X509v3 Key Usage: 
                Digital Signature, Non Repudiation, Key Encipherment
            X509v3 Subject Alternative Name: 
                DNS:*.miky.com, DNS:*.miky.cn
    Signature Algorithm: sha256WithRSAEncryption
         a9:bb:af:24:81:35:90:be:e2:df:e2:a2:93:68:91:da:4b:20:
         67:87:8d:68:ab:ba:9e:01:35:ca:01:08:60:fd:9d:84:c1:76:
         5f:69:94:47:e4:54:4e:ff:cb:86:0e:fe:9e:ab:a6:c9:a1:35:
         7a:4d:1d:c8:c6:93:5c:1b:6f:fa:43:aa:5b:6e:db:f2:38:08:
         77:59:63:09:11:b0:1e:a6:3b:62:07:aa:f7:2f:ca:07:e7:aa:
         94:4e:14:96:48:92:f9:ad:9e:1b:b3:90:76:30:f1:36:dc:04:
         59:95:50:7b:1f:9a:4e:52:ca:41:c5:da:ac:25:c2:f5:0b:d8:
         06:6d:74:90:3f:15:ff:14:40:eb:17:b2:49:ab:79:87:cf:b4:
         a3:4b:29:51:7d:eb:c4:71:1b:e1:4a:b6:ba:d8:aa:49:15:df:
         4a:1e:a0:86:4a:8f:e6:a1:78:b0:09:16:12:d0:63:32:c5:4a:
         49:9c:23:98:3d:c7:e8:e1:3c:9a:0f:5c:9d:35:bc:5d:4e:4a:
         e0:4c:92:4f:e3:63:03:5d:7e:bc:02:d8:c4:8e:91:67:de:90:
         51:1f:cd:1d:73:5a:9e:c2:f3:8a:d4:fe:ef:76:fb:6a:02:11:
         9f:9f:2b:f2:cb:7d:5c:2c:0b:59:f2:ed:40:15:7c:02:51:53:
         80:f9:9b:54
-----BEGIN CERTIFICATE-----
MIIDrTCCApWgAwIBAgIBAzANBgkqhkiG9w0BAQsFADCBgDELMAkGA1UEBhMCQ04x
CzAJBgNVBAgMAkdEMQswCQYDVQQHDAJTWjEVMBMGA1UECgwMTWlreSBDb21wYW55
MQswCQYDVQQLDAJJVDERMA8GA1UEAwwIbWlreS5jb20xIDAeBgkqhkiG9w0BCQEW
EWdpbGxtc3RhckAxNjMuY29tMB4XDTE5MDYwODA5NTMzNFoXDTIwMDYwNzA5NTMz
NFowdTELMAkGA1UEBhMCQ04xCzAJBgNVBAgMAkdEMRUwEwYDVQQKDAxNaWt5IENv
bXBhbnkxCzAJBgNVBAsMAklUMRMwEQYDVQQDDAoqLm1pa3kuY29tMSAwHgYJKoZI
hvcNAQkBFhFnaWxsbXN0YXJAMTYzLmNvbTCCASIwDQYJKoZIhvcNAQEBBQADggEP
ADCCAQoCggEBAMWlZO7vROKOb5ZNtbGhhOUH4IBt1C5kqZWgVx9cyIu23YKaIE/N
+K+Z/lsX/isFyvOZZ87mVKnRITr8MAv7hOENivX0fm4jRjrZI8CYygTtP+ZqneCy
/1NSsPWrzGfcCiWmNipL9GnlnaOAOSnYAjx5vY+LBtgZXozHt1QdEOb1bTS7ahz2
9F1PxSo0F4XEZagaBgCvPUp4gPF7fqYekI2RKKJgW/TGnmG2GB89PooFsgpCuKe2
1rdYT1myM6SjQjLfocZmQ6EduwvPUYk6SNUwC2KyiJwUhkd6ETsrlfpsK6c1nq7+
K7Z5rodb4xD7H5HDEoSt6drvsHL/2u+e23kCAwEAAaM8MDowCQYDVR0TBAIwADAL
BgNVHQ8EBAMCBeAwIAYDVR0RBBkwF4IKKi5taWt5LmNvbYIJKi5taWt5LmNuMA0G
CSqGSIb3DQEBCwUAA4IBAQCpu68kgTWQvuLf4qKTaJHaSyBnh41oq7qeATXKAQhg
/Z2EwXZfaZRH5FRO/8uGDv6eq6bJoTV6TR3IxpNcG2/6Q6pbbtvyOAh3WWMJEbAe
pjtiB6r3L8oH56qUThSWSJL5rZ4bs5B2MPE23ARZlVB7H5pOUspBxdqsJcL1C9gG
bXSQPxX/FEDrF7JJq3mHz7SjSylRfevEcRvhSra62KpJFd9KHqCGSo/moXiwCRYS
0GMyxUpJnCOYPcfo4TyaD1ydNbxdTkrgTJJP42MDXX68AtjEjpFn3pBRH80dc1qe
wvOK1P7vdvtqAhGfnyvyy31cLAtZ8u1AFXwCUVOA+ZtU
-----END CERTIFICATE-----
