Certificate:
    Data:
        Version: 3 (0x2)
        Serial Number: 1 (0x1)
    Signature Algorithm: sha256WithRSAEncryption
        Issuer: C=CN, ST=GD, L=SZ, O=Miky Company, OU=IT, CN=miky.com/emailAddress=gillmstar@163.com
        Validity
            Not Before: Jun  8 09:32:37 2019 GMT
            Not After : Jun  7 09:32:37 2020 GMT
        Subject: C=CN, ST=GD, O=Miky Company, OU=IT, CN=*.miky.com/emailAddress=gillmstar@163.com
        Subject Public Key Info:
            Public Key Algorithm: rsaEncryption
                Public-Key: (2048 bit)
                Modulus:
                    00:c5:a5:64:ee:ef:44:e2:8e:6f:96:4d:b5:b1:a1:
                    84:e5:07:e0:80:6d:d4:2e:64:a9:95:a0:57:1f:5c:
                    c8:8b:b6:dd:82:9a:20:4f:cd:f8:af:99:fe:5b:17:
                    fe:2b:05:ca:f3:99:67:ce:e6:54:a9:d1:21:3a:fc:
                    30:0b:fb:84:e1:0d:8a:f5:f4:7e:6e:23:46:3a:d9:
                    23:c0:98:ca:04:ed:3f:e6:6a:9d:e0:b2:ff:53:52:
                    b0:f5:ab:cc:67:dc:0a:25:a6:36:2a:4b:f4:69:e5:
                    9d:a3:80:39:29:d8:02:3c:79:bd:8f:8b:06:d8:19:
                    5e:8c:c7:b7:54:1d:10:e6:f5:6d:34:bb:6a:1c:f6:
                    f4:5d:4f:c5:2a:34:17:85:c4:65:a8:1a:06:00:af:
                    3d:4a:78:80:f1:7b:7e:a6:1e:90:8d:91:28:a2:60:
                    5b:f4:c6:9e:61:b6:18:1f:3d:3e:8a:05:b2:0a:42:
                    b8:a7:b6:d6:b7:58:4f:59:b2:33:a4:a3:42:32:df:
                    a1:c6:66:43:a1:1d:bb:0b:cf:51:89:3a:48:d5:30:
                    0b:62:b2:88:9c:14:86:47:7a:11:3b:2b:95:fa:6c:
                    2b:a7:35:9e:ae:fe:2b:b6:79:ae:87:5b:e3:10:fb:
                    1f:91:c3:12:84:ad:e9:da:ef:b0:72:ff:da:ef:9e:
                    db:79
                Exponent: 65537 (0x10001)
        X509v3 extensions:
            X509v3 Basic Constraints: 
                CA:FALSE
            Netscape Comment: 
                OpenSSL Generated Certificate
            X509v3 Subject Key Identifier: 
                4E:1E:59:97:EA:0C:67:1E:60:2F:52:6C:0D:CB:99:84:7F:06:AC:02
            X509v3 Authority Key Identifier: 
                keyid:0F:FA:8C:F1:8E:FF:6B:54:62:78:00:E1:AD:21:19:23:7E:AE:BD:01

    Signature Algorithm: sha256WithRSAEncryption
         43:29:ce:87:0d:96:cb:46:52:ff:eb:c5:ae:f5:ec:51:53:e6:
         7b:e3:4e:b3:8c:a2:ef:75:15:ca:30:6f:95:a0:8f:47:62:01:
         ec:f8:36:9e:4a:b4:7b:98:6c:da:13:c2:f1:ef:aa:f9:70:59:
         df:bf:38:df:38:32:e3:25:90:81:b6:14:26:a9:fc:c5:98:7a:
         86:76:94:c9:5a:ac:86:98:81:b0:28:7d:5f:4d:c3:b7:7e:40:
         0d:63:7f:4c:d1:30:7d:c5:82:af:48:1c:37:44:9c:70:05:aa:
         e9:33:c7:92:5b:96:2b:15:cd:db:bb:2d:ff:74:7c:dd:0e:15:
         c3:aa:e4:44:48:ab:8d:6b:fe:73:be:82:6f:f4:50:66:5a:0a:
         48:62:4f:08:80:e8:24:a1:44:51:e5:b3:3e:25:af:8d:12:d3:
         45:44:6a:60:94:dc:d7:8a:d4:c9:76:18:7a:5b:3e:fa:73:fb:
         81:d0:94:7d:75:9c:5d:2a:5e:76:22:ac:41:3d:ca:e4:c2:e3:
         28:04:e1:6f:40:3b:e1:bd:b4:87:36:2f:99:b4:5a:09:d1:91:
         a6:b0:2c:01:78:95:8c:7b:fd:22:1c:b1:56:03:e3:f3:47:aa:
         bc:ca:72:56:d3:9d:59:bf:ee:c4:09:2c:00:2c:54:4f:df:f9:
         9f:db:1c:25
-----BEGIN CERTIFICATE-----
MIID7DCCAtSgAwIBAgIBATANBgkqhkiG9w0BAQsFADCBgDELMAkGA1UEBhMCQ04x
CzAJBgNVBAgMAkdEMQswCQYDVQQHDAJTWjEVMBMGA1UECgwMTWlreSBDb21wYW55
MQswCQYDVQQLDAJJVDERMA8GA1UEAwwIbWlreS5jb20xIDAeBgkqhkiG9w0BCQEW
EWdpbGxtc3RhckAxNjMuY29tMB4XDTE5MDYwODA5MzIzN1oXDTIwMDYwNzA5MzIz
N1owdTELMAkGA1UEBhMCQ04xCzAJBgNVBAgMAkdEMRUwEwYDVQQKDAxNaWt5IENv
bXBhbnkxCzAJBgNVBAsMAklUMRMwEQYDVQQDDAoqLm1pa3kuY29tMSAwHgYJKoZI
hvcNAQkBFhFnaWxsbXN0YXJAMTYzLmNvbTCCASIwDQYJKoZIhvcNAQEBBQADggEP
ADCCAQoCggEBAMWlZO7vROKOb5ZNtbGhhOUH4IBt1C5kqZWgVx9cyIu23YKaIE/N
+K+Z/lsX/isFyvOZZ87mVKnRITr8MAv7hOENivX0fm4jRjrZI8CYygTtP+ZqneCy
/1NSsPWrzGfcCiWmNipL9GnlnaOAOSnYAjx5vY+LBtgZXozHt1QdEOb1bTS7ahz2
9F1PxSo0F4XEZagaBgCvPUp4gPF7fqYekI2RKKJgW/TGnmG2GB89PooFsgpCuKe2
1rdYT1myM6SjQjLfocZmQ6EduwvPUYk6SNUwC2KyiJwUhkd6ETsrlfpsK6c1nq7+
K7Z5rodb4xD7H5HDEoSt6drvsHL/2u+e23kCAwEAAaN7MHkwCQYDVR0TBAIwADAs
BglghkgBhvhCAQ0EHxYdT3BlblNTTCBHZW5lcmF0ZWQgQ2VydGlmaWNhdGUwHQYD
VR0OBBYEFE4eWZfqDGceYC9SbA3LmYR/BqwCMB8GA1UdIwQYMBaAFA/6jPGO/2tU
YngA4a0hGSN+rr0BMA0GCSqGSIb3DQEBCwUAA4IBAQBDKc6HDZbLRlL/68Wu9exR
U+Z7406zjKLvdRXKMG+VoI9HYgHs+DaeSrR7mGzaE8Lx76r5cFnfvzjfODLjJZCB
thQmqfzFmHqGdpTJWqyGmIGwKH1fTcO3fkANY39M0TB9xYKvSBw3RJxwBarpM8eS
W5YrFc3buy3/dHzdDhXDquRESKuNa/5zvoJv9FBmWgpIYk8IgOgkoURR5bM+Ja+N
EtNFRGpglNzXitTJdhh6Wz76c/uB0JR9dZxdKl52IqxBPcrkwuMoBOFvQDvhvbSH
Ni+ZtFoJ0ZGmsCwBeJWMe/0iHLFWA+PzR6q8ynJW051Zv+7ECSwALFRP3/mf2xwl
-----END CERTIFICATE-----
