Certificate:
    Data:
        Version: 3 (0x2)
        Serial Number: 2 (0x2)
    Signature Algorithm: sha256WithRSAEncryption
        Issuer: C=CN, ST=GD, L=SZ, O=Miky Company, OU=IT, CN=miky.com/emailAddress=gillmstar@163.com
        Validity
            Not Before: Jun  8 09:36:46 2019 GMT
            Not After : Jun  7 09:36:46 2020 GMT
        Subject: C=CN, ST=GD, O=Miky Company, OU=IT, CN=*.miky.com/emailAddress=gillmstar@163.com
        Subject Public Key Info:
            Public Key Algorithm: rsaEncryption
                Public-Key: (2048 bit)
                Modulus:
                    00:c5:a5:64:ee:ef:44:e2:8e:6f:96:4d:b5:b1:a1:
                    84:e5:07:e0:80:6d:d4:2e:64:a9:95:a0:57:1f:5c:
                    c8:8b:b6:dd:82:9a:20:4f:cd:f8:af:99:fe:5b:17:
                    fe:2b:05:ca:f3:99:67:ce:e6:54:a9:d1:21:3a:fc:
                    30:0b:fb:84:e1:0d:8a:f5:f4:7e:6e:23:46:3a:d9:
                    23:c0:98:ca:04:ed:3f:e6:6a:9d:e0:b2:ff:53:52:
                    b0:f5:ab:cc:67:dc:0a:25:a6:36:2a:4b:f4:69:e5:
                    9d:a3:80:39:29:d8:02:3c:79:bd:8f:8b:06:d8:19:
                    5e:8c:c7:b7:54:1d:10:e6:f5:6d:34:bb:6a:1c:f6:
                    f4:5d:4f:c5:2a:34:17:85:c4:65:a8:1a:06:00:af:
                    3d:4a:78:80:f1:7b:7e:a6:1e:90:8d:91:28:a2:60:
                    5b:f4:c6:9e:61:b6:18:1f:3d:3e:8a:05:b2:0a:42:
                    b8:a7:b6:d6:b7:58:4f:59:b2:33:a4:a3:42:32:df:
                    a1:c6:66:43:a1:1d:bb:0b:cf:51:89:3a:48:d5:30:
                    0b:62:b2:88:9c:14:86:47:7a:11:3b:2b:95:fa:6c:
                    2b:a7:35:9e:ae:fe:2b:b6:79:ae:87:5b:e3:10:fb:
                    1f:91:c3:12:84:ad:e9:da:ef:b0:72:ff:da:ef:9e:
                    db:79
                Exponent: 65537 (0x10001)
        X509v3 extensions:
            X509v3 Basic Constraints: 
                CA:FALSE
            Netscape Comment: 
                OpenSSL Generated Certificate
            X509v3 Subject Key Identifier: 
                4E:1E:59:97:EA:0C:67:1E:60:2F:52:6C:0D:CB:99:84:7F:06:AC:02
            X509v3 Authority Key Identifier: 
                keyid:0F:FA:8C:F1:8E:FF:6B:54:62:78:00:E1:AD:21:19:23:7E:AE:BD:01

    Signature Algorithm: sha256WithRSAEncryption
         98:04:6a:0a:1a:bb:2b:c7:60:b1:dd:28:83:d5:fa:4d:6f:a1:
         50:6f:1b:c4:a1:17:b0:96:ce:2a:d8:a7:8c:d0:e3:4f:4a:a0:
         dd:9d:b0:4d:24:22:f3:3e:eb:17:16:79:e9:14:a0:9e:9d:f7:
         72:f6:a4:19:7a:a0:c5:2a:64:ef:96:d7:a8:d9:33:65:0d:0f:
         41:d6:fe:2e:d0:98:e5:52:5e:1b:ca:d1:e2:de:79:7c:09:44:
         5a:1c:60:03:f5:47:f6:65:8d:c4:6c:1e:18:96:a6:7a:ad:60:
         e0:a3:ea:b6:02:5b:9e:83:76:37:27:cd:bb:90:f7:ef:a9:18:
         37:b4:c1:41:69:bc:38:1e:a6:b5:0e:50:ae:00:7a:8f:08:85:
         8c:30:04:33:6d:70:bf:0a:c6:2a:a1:69:26:cf:e9:4e:d3:50:
         c7:e3:57:53:ee:17:13:7a:f9:a1:db:1b:6e:2f:6a:e8:46:30:
         f7:61:7d:ec:ed:69:9d:cb:60:78:23:e1:bf:0d:ea:22:4c:d4:
         32:06:56:d1:2d:3b:2a:7a:e2:a5:03:9b:03:72:f5:a6:7a:2b:
         35:bb:20:1d:64:11:06:8c:1e:6e:f2:39:f5:f7:ea:e9:8c:14:
         2c:d4:d8:e4:9c:e3:f2:04:de:6c:66:50:b3:02:96:13:8d:c3:
         5d:ee:39:f0
-----BEGIN CERTIFICATE-----
MIID7DCCAtSgAwIBAgIBAjANBgkqhkiG9w0BAQsFADCBgDELMAkGA1UEBhMCQ04x
CzAJBgNVBAgMAkdEMQswCQYDVQQHDAJTWjEVMBMGA1UECgwMTWlreSBDb21wYW55
MQswCQYDVQQLDAJJVDERMA8GA1UEAwwIbWlreS5jb20xIDAeBgkqhkiG9w0BCQEW
EWdpbGxtc3RhckAxNjMuY29tMB4XDTE5MDYwODA5MzY0NloXDTIwMDYwNzA5MzY0
NlowdTELMAkGA1UEBhMCQ04xCzAJBgNVBAgMAkdEMRUwEwYDVQQKDAxNaWt5IENv
bXBhbnkxCzAJBgNVBAsMAklUMRMwEQYDVQQDDAoqLm1pa3kuY29tMSAwHgYJKoZI
hvcNAQkBFhFnaWxsbXN0YXJAMTYzLmNvbTCCASIwDQYJKoZIhvcNAQEBBQADggEP
ADCCAQoCggEBAMWlZO7vROKOb5ZNtbGhhOUH4IBt1C5kqZWgVx9cyIu23YKaIE/N
+K+Z/lsX/isFyvOZZ87mVKnRITr8MAv7hOENivX0fm4jRjrZI8CYygTtP+ZqneCy
/1NSsPWrzGfcCiWmNipL9GnlnaOAOSnYAjx5vY+LBtgZXozHt1QdEOb1bTS7ahz2
9F1PxSo0F4XEZagaBgCvPUp4gPF7fqYekI2RKKJgW/TGnmG2GB89PooFsgpCuKe2
1rdYT1myM6SjQjLfocZmQ6EduwvPUYk6SNUwC2KyiJwUhkd6ETsrlfpsK6c1nq7+
K7Z5rodb4xD7H5HDEoSt6drvsHL/2u+e23kCAwEAAaN7MHkwCQYDVR0TBAIwADAs
BglghkgBhvhCAQ0EHxYdT3BlblNTTCBHZW5lcmF0ZWQgQ2VydGlmaWNhdGUwHQYD
VR0OBBYEFE4eWZfqDGceYC9SbA3LmYR/BqwCMB8GA1UdIwQYMBaAFA/6jPGO/2tU
YngA4a0hGSN+rr0BMA0GCSqGSIb3DQEBCwUAA4IBAQCYBGoKGrsrx2Cx3SiD1fpN
b6FQbxvEoRewls4q2KeM0ONPSqDdnbBNJCLzPusXFnnpFKCenfdy9qQZeqDFKmTv
lteo2TNlDQ9B1v4u0JjlUl4bytHi3nl8CURaHGAD9Uf2ZY3EbB4YlqZ6rWDgo+q2
Alueg3Y3J827kPfvqRg3tMFBabw4Hqa1DlCuAHqPCIWMMAQzbXC/CsYqoWkmz+lO
01DH41dT7hcTevmh2xtuL2roRjD3YX3s7Wmdy2B4I+G/DeoiTNQyBlbRLTsqeuKl
A5sDcvWmeis1uyAdZBEGjB5u8jn19+rpjBQs1NjknOPyBN5sZlCzApYTjcNd7jnw
-----END CERTIFICATE-----
